; Function Attrs: mustprogress uwtable
define hidden void @_ZNK7datalog13mk_magic_sets9adornment9to_stringB5cxx11Ev(ptr noalias nonnull sret(%"class.std::__cxx11::basic_string") align 8 %agg.result, ptr nocapture noundef nonnull readonly align 8 dereferenceable(8) %this) local_unnamed_addr #3 align 2 personality ptr @__gxx_personality_v0 {
entry:
  tail call void @_ZNSt7__cxx1112basic_stringIcSt11char_traitsIcESaIcEEC1Ev(ptr noundef nonnull align 8 dereferenceable(32) %agg.result) #15
  %0 = load ptr, ptr %this, align 8
  %cmp.i.i = icmp eq ptr %0, null
  br i1 %cmp.i.i, label %nrvo.skipdtor, label %_ZNK6vectorIN7datalog13mk_magic_sets6a_flagELb0EjE3endEv.exit

_ZNK6vectorIN7datalog13mk_magic_sets6a_flagELb0EjE3endEv.exit: ; preds = %entry
  %arrayidx.i.i = getelementptr inbounds i8, ptr %0, i64 -4
  %1 = load i32, ptr %arrayidx.i.i, align 4
  %2 = zext i32 %1 to i64
  %add.ptr.i = getelementptr inbounds i32, ptr %0, i64 %2
  %cmp.not3 = icmp eq i32 %1, 0
  br i1 %cmp.not3, label %nrvo.skipdtor, label %for.body

for.body:                                         ; preds = %_ZNK6vectorIN7datalog13mk_magic_sets6a_flagELb0EjE3endEv.exit, %for.inc
  %eit.04 = phi ptr [ %incdec.ptr, %for.inc ], [ %0, %_ZNK6vectorIN7datalog13mk_magic_sets6a_flagELb0EjE3endEv.exit ]
  %3 = load i32, ptr %eit.04, align 4
  %cmp4 = icmp eq i32 %3, 1
  %cond = select i1 %cmp4, i8 98, i8 102
  %call6 = invoke noundef nonnull align 8 dereferenceable(32) ptr @_ZNSt7__cxx1112basic_stringIcSt11char_traitsIcESaIcEEpLEc(ptr noundef nonnull align 8 dereferenceable(32) %agg.result, i8 noundef signext %cond)
          to label %for.inc unwind label %lpad

for.inc:                                          ; preds = %for.body
  %incdec.ptr = getelementptr inbounds i8, ptr %eit.04, i64 4
  %cmp.not = icmp eq ptr %incdec.ptr, %add.ptr.i
  br i1 %cmp.not, label %nrvo.skipdtor, label %for.body, !llvm.loop !12

lpad:                                             ; preds = %for.body
  %4 = landingpad { ptr, i32 }
          cleanup
  tail call void @_ZNSt7__cxx1112basic_stringIcSt11char_traitsIcESaIcEED1Ev(ptr noundef nonnull align 8 dereferenceable(32) %agg.result) #15
  resume { ptr, i32 } %4

nrvo.skipdtor:                                    ; preds = %for.inc, %entry, %_ZNK6vectorIN7datalog13mk_magic_sets6a_flagELb0EjE3endEv.exit
  ret void
}